target datalayout = "e-m:e-p270:32:32-p271:32:32-p272:64:64-i64:64-i128:128-f80:128-n8:16:32:64-S128"
target triple = "x86_64-pc-linux-gnu"

%"class.llvm::IntrusiveRefCntPtr" = type { ptr }
%"class.llvm::ErrorOr.8" = type { %union.anon.9, i8, [7 x i8] }
%union.anon.9 = type { %"struct.llvm::AlignedCharArrayUnion.10" }
%"struct.llvm::AlignedCharArrayUnion.10" = type { [32 x i8] }
%"class.llvm::vfs::FileSystem.base" = type <{ %"class.llvm::RTTIExtends", %"class.llvm::ThreadSafeRefCountedBase" }>
%"class.llvm::RTTIExtends" = type { %"class.llvm::RTTIRoot" }
%"class.llvm::RTTIRoot" = type { ptr }
%"class.llvm::ThreadSafeRefCountedBase" = type { %"struct.std::atomic" }
%"struct.std::atomic" = type { %"struct.std::__atomic_base" }
%"struct.std::__atomic_base" = type { i32 }
%"class.llvm::vfs::OverlayFileSystem" = type { %"class.llvm::RTTIExtends.base", %"class.llvm::SmallVector" }
%"class.llvm::RTTIExtends.base" = type { %"class.llvm::vfs::FileSystem.base" }
%"class.llvm::SmallVector" = type { %"class.llvm::SmallVectorImpl.43", %"struct.llvm::SmallVectorStorage" }
%"class.llvm::SmallVectorImpl.43" = type { %"class.llvm::SmallVectorTemplateBase.44" }
%"class.llvm::SmallVectorTemplateBase.44" = type { %"class.llvm::SmallVectorTemplateCommon.45" }
%"class.llvm::SmallVectorTemplateCommon.45" = type { %"class.llvm::SmallVectorBase.46" }
%"class.llvm::SmallVectorBase.46" = type { ptr, i32, i32 }
%"struct.llvm::SmallVectorStorage" = type { [8 x i8] }

; Function Attrs: mustprogress nounwind uwtable
define linkonce_odr hidden noundef ptr @_ZNK4llvm25SmallVectorTemplateCommonINS_18IntrusiveRefCntPtrINS_3vfs10FileSystemEEEvE5beginEv(ptr noundef nonnull align 8 dereferenceable(16) %0) #0 comdat align 2 {
  %2 = alloca ptr, align 8
  store ptr %0, ptr %2, align 8
  %3 = load ptr, ptr %2, align 8
  %4 = getelementptr inbounds nuw %"class.llvm::SmallVectorBase.46", ptr %3, i32 0, i32 0
  %5 = load ptr, ptr %4, align 8
  ret ptr %5
}

; Function Attrs: mustprogress nounwind uwtable
define linkonce_odr hidden noundef ptr @_ZNK4llvm18IntrusiveRefCntPtrINS_3vfs10FileSystemEEptEv(ptr noundef nonnull align 8 dereferenceable(8) %0) #0 comdat align 2 {
  %2 = alloca ptr, align 8
  store ptr %0, ptr %2, align 8
  %3 = load ptr, ptr %2, align 8
  %4 = getelementptr inbounds nuw %"class.llvm::IntrusiveRefCntPtr", ptr %3, i32 0, i32 0
  %5 = load ptr, ptr %4, align 8
  ret ptr %5
}

; Function Attrs: mustprogress nounwind uwtable
define linkonce_odr hidden noundef nonnull align 8 dereferenceable(8) ptr @_ZNK4llvm25SmallVectorTemplateCommonINS_18IntrusiveRefCntPtrINS_3vfs10FileSystemEEEvE5frontEv(ptr noundef nonnull align 8 dereferenceable(16) %0) #0 comdat align 2 {
  %2 = alloca ptr, align 8
  store ptr %0, ptr %2, align 8
  %3 = load ptr, ptr %2, align 8
  %4 = call noundef ptr @_ZNK4llvm25SmallVectorTemplateCommonINS_18IntrusiveRefCntPtrINS_3vfs10FileSystemEEEvE5beginEv(ptr noundef nonnull align 8 dereferenceable(16) %3)
  %5 = getelementptr inbounds %"class.llvm::IntrusiveRefCntPtr", ptr %4, i64 0
  ret ptr %5
}

; Function Attrs: mustprogress nounwind uwtable
define dso_local void @_ZNK4llvm3vfs17OverlayFileSystem26getCurrentWorkingDirectoryB5cxx11Ev(ptr dead_on_unwind noalias writable sret(%"class.llvm::ErrorOr.8") align 8 %0, ptr noundef nonnull align 8 dereferenceable(40) %1) unnamed_addr #0 align 2 {
  %3 = alloca ptr, align 8
  %4 = alloca ptr, align 8
  store ptr %0, ptr %3, align 8
  store ptr %1, ptr %4, align 8
  %5 = load ptr, ptr %4, align 8
  %6 = getelementptr inbounds nuw %"class.llvm::vfs::OverlayFileSystem", ptr %5, i32 0, i32 1
  %7 = call noundef nonnull align 8 dereferenceable(8) ptr @_ZNK4llvm25SmallVectorTemplateCommonINS_18IntrusiveRefCntPtrINS_3vfs10FileSystemEEEvE5frontEv(ptr noundef nonnull align 8 dereferenceable(16) %6)
  %8 = call noundef ptr @_ZNK4llvm18IntrusiveRefCntPtrINS_3vfs10FileSystemEEptEv(ptr noundef nonnull align 8 dereferenceable(8) %7)
  %9 = load ptr, ptr %8, align 8
  %10 = getelementptr inbounds ptr, ptr %9, i64 9
  %11 = load ptr, ptr %10, align 8
  call void %11(ptr dead_on_unwind writable sret(%"class.llvm::ErrorOr.8") align 8 %0, ptr noundef nonnull align 8 dereferenceable(12) %8)
  ret void
}