; Function Attrs: mustprogress nounwind uwtable
define dso_local void @_ZNK4llvm3vfs17OverlayFileSystem26getCurrentWorkingDirectoryB5cxx11Ev(ptr dead_on_unwind noalias writable sret(%"class.llvm::ErrorOr.8") align 8 %0, ptr nocapture noundef nonnull readonly align 8 dereferenceable(40) %1) unnamed_addr #0 align 2 {
  %3 = getelementptr inbounds nuw i8, ptr %1, i64 16
  %4 = load ptr, ptr %3, align 8
  %5 = load ptr, ptr %4, align 8
  %6 = load ptr, ptr %5, align 8
  %7 = getelementptr inbounds i8, ptr %6, i64 72
  %8 = load ptr, ptr %7, align 8
  tail call void %8(ptr dead_on_unwind writable sret(%"class.llvm::ErrorOr.8") align 8 %0, ptr noundef nonnull align 8 dereferenceable(12) %5) #27
  ret void
}